; Function Attrs: inlinehint mustprogress nounwind uwtable
define internal void @_ZZN8QuantLib20LaplaceInterpolationC1ESt8functionIFdRKSt6vectorImSaImEEEES2_IS2_IdSaIdEESaISA_EEdmEN9LaplaceOpD2Ev(ptr nocapture noundef nonnull align 8 dereferenceable(32) %this) unnamed_addr #5 align 2 personality ptr @__gxx_personality_v0 {
entry:
  store ptr getelementptr inbounds inrange(-16, 88) (i8, ptr @_ZTVZN8QuantLib20LaplaceInterpolationC1ESt8functionIFdRKSt6vectorImSaImEEEES2_IS2_IdSaIdEESaISA_EEdmE9LaplaceOp, i64 16), ptr %this, align 8, !tbaa !57
  %map_ = getelementptr inbounds nuw i8, ptr %this, i64 8
  %0 = load ptr, ptr %map_, align 8, !tbaa !75
  %_M_finish.i = getelementptr inbounds nuw i8, ptr %this, i64 16
  %1 = load ptr, ptr %_M_finish.i, align 8, !tbaa !73
  %cmp.not3.i.i.i.i = icmp eq ptr %0, %1
  br i1 %cmp.not3.i.i.i.i, label %invoke.cont.i, label %for.body.i.i.i.i

for.body.i.i.i.i:                                 ; preds = %entry, %for.body.i.i.i.i
  %__first.addr.04.i.i.i.i = phi ptr [ %incdec.ptr.i.i.i.i, %for.body.i.i.i.i ], [ %0, %entry ]
  %vtable.i.i.i.i.i = load ptr, ptr %__first.addr.04.i.i.i.i, align 8, !tbaa !57
  %2 = load ptr, ptr %vtable.i.i.i.i.i, align 8
  tail call void %2(ptr noundef nonnull align 8 dereferenceable(80) %__first.addr.04.i.i.i.i) #25
  %incdec.ptr.i.i.i.i = getelementptr inbounds nuw i8, ptr %__first.addr.04.i.i.i.i, i64 80
  %cmp.not.i.i.i.i = icmp eq ptr %incdec.ptr.i.i.i.i, %1
  br i1 %cmp.not.i.i.i.i, label %invoke.contthread-pre-split.i, label %for.body.i.i.i.i, !llvm.loop !76

invoke.contthread-pre-split.i:                    ; preds = %for.body.i.i.i.i
  %.pr.i = load ptr, ptr %map_, align 8, !tbaa !75
  br label %invoke.cont.i

invoke.cont.i:                                    ; preds = %invoke.contthread-pre-split.i, %entry
  %3 = phi ptr [ %.pr.i, %invoke.contthread-pre-split.i ], [ %0, %entry ]
  %tobool.not.i.i.i = icmp eq ptr %3, null
  br i1 %tobool.not.i.i.i, label %_ZNSt6vectorIN8QuantLib18TripleBandLinearOpESaIS1_EED2Ev.exit, label %if.then.i.i.i

if.then.i.i.i:                                    ; preds = %invoke.cont.i
  %_M_end_of_storage.i.i = getelementptr inbounds nuw i8, ptr %this, i64 24
  %4 = load ptr, ptr %_M_end_of_storage.i.i, align 8, !tbaa !71
  %sub.ptr.lhs.cast.i.i = ptrtoint ptr %4 to i64
  %sub.ptr.rhs.cast.i.i = ptrtoint ptr %3 to i64
  %sub.ptr.sub.i.i = sub i64 %sub.ptr.lhs.cast.i.i, %sub.ptr.rhs.cast.i.i
  tail call void @_ZdlPvm(ptr noundef nonnull %3, i64 noundef %sub.ptr.sub.i.i) #28
  br label %_ZNSt6vectorIN8QuantLib18TripleBandLinearOpESaIS1_EED2Ev.exit

_ZNSt6vectorIN8QuantLib18TripleBandLinearOpESaIS1_EED2Ev.exit: ; preds = %invoke.cont.i, %if.then.i.i.i
  ret void
}